target datalayout = "e-m:e-p270:32:32-p271:32:32-p272:64:64-i64:64-i128:128-f80:128-n8:16:32:64-S128"
target triple = "x86_64-pc-linux-gnu"

%struct._zval_struct = type { %union._zend_value, %union.anon, %union.anon.3 }
%union._zend_value = type { i64 }
%union.anon = type { i32 }
%union.anon.3 = type { i32 }
%struct._zend_array = type { %struct._zend_refcounted_h, %union.anon.5, i32, %union.anon.7, i32, i32, i32, i32, i64, ptr }
%struct._zend_refcounted_h = type { i32, %union.anon.4 }
%union.anon.4 = type { i32 }
%union.anon.5 = type { i32 }
%union.anon.7 = type { ptr }
%struct.anon.1 = type { i8, i8, %union.anon.2 }
%union.anon.2 = type { i16 }
%struct._Bucket = type { %struct._zval_struct, i64, ptr }

; Function Attrs: nounwind uwtable
define i32 @zend_array_type_info(ptr noundef %0) #0 {
  %2 = alloca ptr, align 8
  %3 = alloca ptr, align 8
  %4 = alloca ptr, align 8
  %5 = alloca ptr, align 8
  %6 = alloca ptr, align 8
  %7 = alloca ptr, align 8
  %8 = alloca ptr, align 8
  %9 = alloca i32, align 4
  %10 = alloca ptr, align 8
  %11 = alloca ptr, align 8
  %12 = alloca ptr, align 8
  %13 = alloca i64, align 8
  %14 = alloca ptr, align 8
  %15 = alloca ptr, align 8
  %16 = alloca ptr, align 8
  %17 = alloca ptr, align 8
  %18 = alloca ptr, align 8
  %19 = alloca ptr, align 8
  store ptr %0, ptr %7, align 8
  %20 = load ptr, ptr %7, align 8
  %21 = getelementptr inbounds %struct._zval_struct, ptr %20, i32 0, i32 0
  %22 = load ptr, ptr %21, align 8
  store ptr %22, ptr %8, align 8
  store i32 128, ptr %9, align 4
  %23 = load ptr, ptr %7, align 8
  %24 = getelementptr inbounds %struct._zval_struct, ptr %23, i32 0, i32 1
  %25 = getelementptr inbounds %struct.anon.1, ptr %24, i32 0, i32 1
  %26 = load i8, ptr %25, align 1
  %27 = zext i8 %26 to i32
  %28 = icmp ne i32 %27, 0
  br i1 %28, label %29, label %32

29:                                               ; preds = %1
  %30 = load i32, ptr %9, align 4
  %31 = or i32 %30, -1073741824
  store i32 %31, ptr %9, align 4
  br label %35

32:                                               ; preds = %1
  %33 = load i32, ptr %9, align 4
  %34 = or i32 %33, -2147483648
  store i32 %34, ptr %9, align 4
  br label %35

35:                                               ; preds = %32, %29
  %36 = load ptr, ptr %8, align 8
  store ptr %36, ptr %6, align 8
  %37 = load ptr, ptr %6, align 8
  %38 = getelementptr inbounds %struct._zend_array, ptr %37, i32 0, i32 5
  %39 = load i32, ptr %38, align 4
  %40 = icmp eq i32 %39, 0
  br i1 %40, label %41, label %44

41:                                               ; preds = %35
  %42 = load i32, ptr %9, align 4
  %43 = or i32 %42, 536870912
  store i32 %43, ptr %9, align 4
  br label %176

44:                                               ; preds = %35
  %45 = load ptr, ptr %8, align 8
  %46 = getelementptr inbounds %struct._zend_array, ptr %45, i32 0, i32 1
  %47 = load i32, ptr %46, align 8
  %48 = and i32 %47, 4
  %49 = icmp ne i32 %48, 0
  br i1 %49, label %50, label %107

50:                                               ; preds = %44
  %51 = load i32, ptr %9, align 4
  %52 = or i32 %51, 2097152
  store i32 %52, ptr %9, align 4
  br label %53

53:                                               ; preds = %50
  %54 = load ptr, ptr %8, align 8
  store ptr %54, ptr %12, align 8
  store i64 0, ptr %13, align 8
  %55 = load ptr, ptr %12, align 8
  %56 = getelementptr inbounds %struct._zend_array, ptr %55, i32 0, i32 3
  %57 = load ptr, ptr %56, align 8
  %58 = getelementptr inbounds %struct._zval_struct, ptr %57, i64 0
  store ptr %58, ptr %14, align 8
  %59 = load ptr, ptr %12, align 8
  %60 = getelementptr inbounds %struct._zend_array, ptr %59, i32 0, i32 3
  %61 = load ptr, ptr %60, align 8
  %62 = load ptr, ptr %12, align 8
  %63 = getelementptr inbounds %struct._zend_array, ptr %62, i32 0, i32 4
  %64 = load i32, ptr %63, align 8
  %65 = zext i32 %64 to i64
  %66 = getelementptr inbounds %struct._zval_struct, ptr %61, i64 %65
  store ptr %66, ptr %15, align 8
  %67 = load ptr, ptr %12, align 8
  %68 = getelementptr inbounds %struct._zend_array, ptr %67, i32 0, i32 1
  %69 = load i32, ptr %68, align 8
  %70 = and i32 %69, 4
  %71 = icmp ne i32 %70, 0
  call void @llvm.assume(i1 %71)
  br label %72

72:                                               ; preds = %100, %53
  %73 = load ptr, ptr %14, align 8
  %74 = load ptr, ptr %15, align 8
  %75 = icmp ne ptr %73, %74
  br i1 %75, label %76, label %105

76:                                               ; preds = %72
  %77 = load ptr, ptr %14, align 8
  store ptr %77, ptr %2, align 8
  %78 = load ptr, ptr %2, align 8
  %79 = getelementptr inbounds %struct._zval_struct, ptr %78, i32 0, i32 1
  %80 = load i8, ptr %79, align 8
  %81 = zext i8 %80 to i32
  %82 = icmp eq i32 %81, 0
  %83 = xor i1 %82, true
  %84 = xor i1 %83, true
  %85 = zext i1 %84 to i32
  %86 = sext i32 %85 to i64
  %87 = icmp ne i64 %86, 0
  br i1 %87, label %88, label %89

88:                                               ; preds = %76
  br label %100

89:                                               ; preds = %76
  %90 = load ptr, ptr %14, align 8
  store ptr %90, ptr %11, align 8
  %91 = load ptr, ptr %11, align 8
  store ptr %91, ptr %3, align 8
  %92 = load ptr, ptr %3, align 8
  %93 = getelementptr inbounds %struct._zval_struct, ptr %92, i32 0, i32 1
  %94 = load i8, ptr %93, align 8
  %95 = zext i8 %94 to i32
  %96 = add nsw i32 %95, 10
  %97 = shl i32 1, %96
  %98 = load i32, ptr %9, align 4
  %99 = or i32 %98, %97
  store i32 %99, ptr %9, align 4
  br label %100

100:                                              ; preds = %89, %88
  %101 = load ptr, ptr %14, align 8
  %102 = getelementptr inbounds %struct._zval_struct, ptr %101, i32 1
  store ptr %102, ptr %14, align 8
  %103 = load i64, ptr %13, align 8
  %104 = add i64 %103, 1
  store i64 %104, ptr %13, align 8
  br label %72

105:                                              ; preds = %72
  br label %106

106:                                              ; preds = %105
  br label %175

107:                                              ; preds = %44
  br label %108

108:                                              ; preds = %107
  %109 = load ptr, ptr %8, align 8
  store ptr %109, ptr %16, align 8
  %110 = load ptr, ptr %16, align 8
  %111 = getelementptr inbounds %struct._zend_array, ptr %110, i32 0, i32 3
  %112 = load ptr, ptr %111, align 8
  %113 = getelementptr inbounds %struct._Bucket, ptr %112, i64 0
  store ptr %113, ptr %17, align 8
  %114 = load ptr, ptr %16, align 8
  %115 = getelementptr inbounds %struct._zend_array, ptr %114, i32 0, i32 3
  %116 = load ptr, ptr %115, align 8
  %117 = load ptr, ptr %16, align 8
  %118 = getelementptr inbounds %struct._zend_array, ptr %117, i32 0, i32 4
  %119 = load i32, ptr %118, align 8
  %120 = zext i32 %119 to i64
  %121 = getelementptr inbounds %struct._Bucket, ptr %116, i64 %120
  store ptr %121, ptr %18, align 8
  %122 = load ptr, ptr %16, align 8
  %123 = getelementptr inbounds %struct._zend_array, ptr %122, i32 0, i32 1
  %124 = load i32, ptr %123, align 8
  %125 = and i32 %124, 4
  %126 = icmp ne i32 %125, 0
  %127 = xor i1 %126, true
  call void @llvm.assume(i1 %127)
  br label %128

128:                                              ; preds = %170, %108
  %129 = load ptr, ptr %17, align 8
  %130 = load ptr, ptr %18, align 8
  %131 = icmp ne ptr %129, %130
  br i1 %131, label %132, label %173

132:                                              ; preds = %128
  %133 = load ptr, ptr %17, align 8
  %134 = getelementptr inbounds %struct._Bucket, ptr %133, i32 0, i32 0
  store ptr %134, ptr %19, align 8
  %135 = load ptr, ptr %19, align 8
  store ptr %135, ptr %4, align 8
  %136 = load ptr, ptr %4, align 8
  %137 = getelementptr inbounds %struct._zval_struct, ptr %136, i32 0, i32 1
  %138 = load i8, ptr %137, align 8
  %139 = zext i8 %138 to i32
  %140 = icmp eq i32 %139, 0
  %141 = xor i1 %140, true
  %142 = xor i1 %141, true
  %143 = zext i1 %142 to i32
  %144 = sext i32 %143 to i64
  %145 = icmp ne i64 %144, 0
  br i1 %145, label %146, label %147

146:                                              ; preds = %132
  br label %170

147:                                              ; preds = %132
  %148 = load ptr, ptr %17, align 8
  %149 = getelementptr inbounds %struct._Bucket, ptr %148, i32 0, i32 2
  %150 = load ptr, ptr %149, align 8
  store ptr %150, ptr %10, align 8
  %151 = load ptr, ptr %19, align 8
  store ptr %151, ptr %11, align 8
  %152 = load ptr, ptr %10, align 8
  %153 = icmp ne ptr %152, null
  br i1 %153, label %154, label %157

154:                                              ; preds = %147
  %155 = load i32, ptr %9, align 4
  %156 = or i32 %155, 8388608
  store i32 %156, ptr %9, align 4
  br label %160

157:                                              ; preds = %147
  %158 = load i32, ptr %9, align 4
  %159 = or i32 %158, 4194304
  store i32 %159, ptr %9, align 4
  br label %160

160:                                              ; preds = %157, %154
  %161 = load ptr, ptr %11, align 8
  store ptr %161, ptr %5, align 8
  %162 = load ptr, ptr %5, align 8
  %163 = getelementptr inbounds %struct._zval_struct, ptr %162, i32 0, i32 1
  %164 = load i8, ptr %163, align 8
  %165 = zext i8 %164 to i32
  %166 = add nsw i32 %165, 10
  %167 = shl i32 1, %166
  %168 = load i32, ptr %9, align 4
  %169 = or i32 %168, %167
  store i32 %169, ptr %9, align 4
  br label %170

170:                                              ; preds = %160, %146
  %171 = load ptr, ptr %17, align 8
  %172 = getelementptr inbounds %struct._Bucket, ptr %171, i32 1
  store ptr %172, ptr %17, align 8
  br label %128

173:                                              ; preds = %128
  br label %174

174:                                              ; preds = %173
  br label %175

175:                                              ; preds = %174, %106
  br label %176

176:                                              ; preds = %175, %41
  %177 = load i32, ptr %9, align 4
  ret i32 %177
}