; Function Attrs: nofree norecurse nosync nounwind memory(read, inaccessiblemem: none) uwtable
define i32 @zend_array_type_info(ptr nocapture noundef readonly %0) local_unnamed_addr #9 {
  %2 = load ptr, ptr %0, align 8
  %3 = getelementptr inbounds i8, ptr %0, i64 9
  %4 = load i8, ptr %3, align 1
  %.not = icmp eq i8 %4, 0
  %. = select i1 %.not, i32 -2147483520, i32 -1073741696
  %5 = getelementptr inbounds i8, ptr %2, i64 28
  %6 = load i32, ptr %5, align 4
  %7 = icmp eq i32 %6, 0
  br i1 %7, label %8, label %10

8:                                                ; preds = %1
  %9 = or disjoint i32 %., 536870912
  br label %.loopexit

10:                                               ; preds = %1
  %11 = getelementptr inbounds i8, ptr %2, i64 8
  %12 = load i32, ptr %11, align 8
  %13 = and i32 %12, 4
  %.not47 = icmp eq i32 %13, 0
  br i1 %.not47, label %29, label %14

14:                                               ; preds = %10
  %15 = or disjoint i32 %., 2097152
  %16 = getelementptr inbounds i8, ptr %2, i64 16
  %17 = load ptr, ptr %16, align 8
  %18 = getelementptr inbounds i8, ptr %2, i64 24
  %19 = load i32, ptr %18, align 8
  %20 = zext i32 %19 to i64
  %21 = getelementptr inbounds %struct._zval_struct, ptr %17, i64 %20
  %.not5052 = icmp eq i32 %19, 0
  br i1 %.not5052, label %.loopexit, label %.lr.ph

.lr.ph:                                           ; preds = %14, %.lr.ph
  %.154 = phi i32 [ %.2, %.lr.ph ], [ %15, %14 ]
  %.04553 = phi ptr [ %28, %.lr.ph ], [ %17, %14 ]
  %22 = getelementptr inbounds i8, ptr %.04553, i64 8
  %23 = load i8, ptr %22, align 8
  %24 = icmp eq i8 %23, 0
  %25 = zext nneg i8 %23 to i32
  %26 = shl nuw i32 1024, %25
  %27 = select i1 %24, i32 0, i32 %26
  %.2 = or i32 %27, %.154
  %28 = getelementptr inbounds i8, ptr %.04553, i64 16
  %.not50 = icmp eq ptr %28, %21
  br i1 %.not50, label %.loopexit, label %.lr.ph

29:                                               ; preds = %10
  %30 = getelementptr inbounds i8, ptr %2, i64 16
  %31 = load ptr, ptr %30, align 8
  %32 = getelementptr inbounds i8, ptr %2, i64 24
  %33 = load i32, ptr %32, align 8
  %34 = zext i32 %33 to i64
  %35 = getelementptr inbounds %struct._Bucket, ptr %31, i64 %34
  %.not4855 = icmp eq i32 %33, 0
  br i1 %.not4855, label %.loopexit, label %.lr.ph58

.lr.ph58:                                         ; preds = %29, %46
  %.357 = phi i32 [ %.5, %46 ], [ %., %29 ]
  %.04356 = phi ptr [ %47, %46 ], [ %31, %29 ]
  %36 = getelementptr inbounds i8, ptr %.04356, i64 8
  %37 = load i8, ptr %36, align 8
  %38 = icmp eq i8 %37, 0
  br i1 %38, label %46, label %39

39:                                               ; preds = %.lr.ph58
  %40 = getelementptr inbounds i8, ptr %.04356, i64 24
  %41 = load ptr, ptr %40, align 8
  %.not49 = icmp eq ptr %41, null
  %.4.v = select i1 %.not49, i32 4194304, i32 8388608
  %42 = zext nneg i8 %37 to i32
  %43 = shl nuw i32 1024, %42
  %44 = or i32 %43, %.4.v
  %45 = or i32 %44, %.357
  br label %46

46:                                               ; preds = %.lr.ph58, %39
  %.5 = phi i32 [ %.357, %.lr.ph58 ], [ %45, %39 ]
  %47 = getelementptr inbounds i8, ptr %.04356, i64 32
  %.not48 = icmp eq ptr %47, %35
  br i1 %.not48, label %.loopexit, label %.lr.ph58

.loopexit:                                        ; preds = %.lr.ph, %46, %14, %29, %8
  %.6 = phi i32 [ %9, %8 ], [ %., %29 ], [ %15, %14 ], [ %.5, %46 ], [ %.2, %.lr.ph ]
  ret i32 %.6
}